; Function Attrs: mustprogress nofree nounwind willreturn memory(argmem: read) uwtable
define internal i32 @callbackKeyCompare(ptr nocapture readnone %privdata, ptr nocapture noundef readonly %key1, ptr nocapture noundef readonly %key2) #8 {
entry:
  %arrayidx.i = getelementptr inbounds i8, ptr %key1, i64 -1
  %0 = load i8, ptr %arrayidx.i, align 1
  %conv.i = zext i8 %0 to i32
  %and.i = and i32 %conv.i, 7
  switch i32 %and.i, label %hi_sdslen.exit [
    i32 0, label %sw.bb.i
    i32 1, label %sw.bb3.i
    i32 2, label %sw.bb5.i
    i32 3, label %sw.bb9.i
    i32 4, label %sw.bb13.i
  ]

sw.bb.i:                                          ; preds = %entry
  %shr.i = lshr i32 %conv.i, 3
  %conv2.i = zext nneg i32 %shr.i to i64
  br label %hi_sdslen.exit

sw.bb3.i:                                         ; preds = %entry
  %add.ptr.i = getelementptr inbounds i8, ptr %key1, i64 -3
  %1 = load i8, ptr %add.ptr.i, align 1
  %conv4.i = zext i8 %1 to i64
  br label %hi_sdslen.exit

sw.bb5.i:                                         ; preds = %entry
  %add.ptr6.i = getelementptr inbounds i8, ptr %key1, i64 -5
  %2 = load i16, ptr %add.ptr6.i, align 1
  %conv8.i = zext i16 %2 to i64
  br label %hi_sdslen.exit

sw.bb9.i:                                         ; preds = %entry
  %add.ptr10.i = getelementptr inbounds i8, ptr %key1, i64 -9
  %3 = load i32, ptr %add.ptr10.i, align 1
  %conv12.i = zext i32 %3 to i64
  br label %hi_sdslen.exit

sw.bb13.i:                                        ; preds = %entry
  %add.ptr14.i = getelementptr inbounds i8, ptr %key1, i64 -17
  %4 = load i64, ptr %add.ptr14.i, align 1
  br label %hi_sdslen.exit

hi_sdslen.exit:                                   ; preds = %entry, %sw.bb.i, %sw.bb3.i, %sw.bb5.i, %sw.bb9.i, %sw.bb13.i
  %retval.0.i = phi i64 [ %4, %sw.bb13.i ], [ %conv12.i, %sw.bb9.i ], [ %conv8.i, %sw.bb5.i ], [ %conv4.i, %sw.bb3.i ], [ %conv2.i, %sw.bb.i ], [ 0, %entry ]
  %conv = trunc i64 %retval.0.i to i32
  %arrayidx.i4 = getelementptr inbounds i8, ptr %key2, i64 -1
  %5 = load i8, ptr %arrayidx.i4, align 1
  %conv.i5 = zext i8 %5 to i32
  %and.i6 = and i32 %conv.i5, 7
  switch i32 %and.i6, label %hi_sdslen.exit22 [
    i32 0, label %sw.bb.i19
    i32 1, label %sw.bb3.i16
    i32 2, label %sw.bb5.i13
    i32 3, label %sw.bb9.i10
    i32 4, label %sw.bb13.i7
  ]

sw.bb.i19:                                        ; preds = %hi_sdslen.exit
  %shr.i20 = lshr i32 %conv.i5, 3
  %conv2.i21 = zext nneg i32 %shr.i20 to i64
  br label %hi_sdslen.exit22

sw.bb3.i16:                                       ; preds = %hi_sdslen.exit
  %add.ptr.i17 = getelementptr inbounds i8, ptr %key2, i64 -3
  %6 = load i8, ptr %add.ptr.i17, align 1
  %conv4.i18 = zext i8 %6 to i64
  br label %hi_sdslen.exit22

sw.bb5.i13:                                       ; preds = %hi_sdslen.exit
  %add.ptr6.i14 = getelementptr inbounds i8, ptr %key2, i64 -5
  %7 = load i16, ptr %add.ptr6.i14, align 1
  %conv8.i15 = zext i16 %7 to i64
  br label %hi_sdslen.exit22

sw.bb9.i10:                                       ; preds = %hi_sdslen.exit
  %add.ptr10.i11 = getelementptr inbounds i8, ptr %key2, i64 -9
  %8 = load i32, ptr %add.ptr10.i11, align 1
  %conv12.i12 = zext i32 %8 to i64
  br label %hi_sdslen.exit22

sw.bb13.i7:                                       ; preds = %hi_sdslen.exit
  %add.ptr14.i8 = getelementptr inbounds i8, ptr %key2, i64 -17
  %9 = load i64, ptr %add.ptr14.i8, align 1
  br label %hi_sdslen.exit22

hi_sdslen.exit22:                                 ; preds = %hi_sdslen.exit, %sw.bb.i19, %sw.bb3.i16, %sw.bb5.i13, %sw.bb9.i10, %sw.bb13.i7
  %retval.0.i9 = phi i64 [ %9, %sw.bb13.i7 ], [ %conv12.i12, %sw.bb9.i10 ], [ %conv8.i15, %sw.bb5.i13 ], [ %conv4.i18, %sw.bb3.i16 ], [ %conv2.i21, %sw.bb.i19 ], [ 0, %hi_sdslen.exit ]
  %conv2 = trunc i64 %retval.0.i9 to i32
  %cmp.not = icmp eq i32 %conv, %conv2
  br i1 %cmp.not, label %if.end, label %return

if.end:                                           ; preds = %hi_sdslen.exit22
  %sext = shl i64 %retval.0.i, 32
  %conv4 = ashr exact i64 %sext, 32
  %bcmp = tail call i32 @bcmp(ptr nonnull %key1, ptr nonnull %key2, i64 %conv4)
  %cmp6 = icmp eq i32 %bcmp, 0
  %conv7 = zext i1 %cmp6 to i32
  br label %return

return:                                           ; preds = %hi_sdslen.exit22, %if.end
  %retval.0 = phi i32 [ %conv7, %if.end ], [ 0, %hi_sdslen.exit22 ]
  ret i32 %retval.0
}